target datalayout = "e-m:e-p270:32:32-p271:32:32-p272:64:64-i64:64-i128:128-f80:128-n8:16:32:64-S128"
target triple = "x86_64-pc-linux-gnu"

%struct.FunctionCallInfoBaseData = type { ptr, ptr, ptr, i32, i8, i16, [0 x %struct.NullableDatum] }
%struct.NullableDatum = type { i64, i8 }
%struct.pg_locale_struct = type { i8, i8, i8, i8, i8, ptr, %union.anon }
%union.anon = type { %struct.anon }
%struct.anon = type { ptr, i8 }
%struct.varattrib_1b = type { i8, [0 x i8] }
%struct.anon.1 = type { i32, [0 x i8] }
%struct.varattrib_1b_e = type { i8, i8, [0 x i8] }

@.str = private unnamed_addr constant [62 x i8] c"could not determine which collation to use for string hashing\00", align 1
@.str.1 = private unnamed_addr constant [56 x i8] c"Use the COLLATE clause to set the collation explicitly.\00", align 1
@.str.2 = private unnamed_addr constant [11 x i8] c"hashfunc.c\00", align 1
@__func__.hashtext = private unnamed_addr constant [9 x i8] c"hashtext\00", align 1
@.str.3 = private unnamed_addr constant [41 x i8] c"pg_strnxfrm() returned unexpected result\00", align 1

; Function Attrs: inlinehint nounwind uwtable
define internal i64 @UInt32GetDatum(i32 noundef %0) #1 {
  %2 = alloca i32, align 4
  store i32 %0, ptr %2, align 4
  %3 = load i32, ptr %2, align 4
  %4 = zext i32 %3 to i64
  ret i64 %4
}

; Function Attrs: inlinehint nounwind uwtable
define internal i64 @hash_any(ptr noundef %0, i32 noundef %1) #1 {
  %3 = alloca ptr, align 8
  %4 = alloca i32, align 4
  store ptr %0, ptr %3, align 8
  store i32 %1, ptr %4, align 4
  %5 = load ptr, ptr %3, align 8
  %6 = load i32, ptr %4, align 4
  %7 = call i32 @hash_bytes(ptr noundef %5, i32 noundef %6)
  %8 = call i64 @UInt32GetDatum(i32 noundef %7)
  ret i64 %8
}

; Function Attrs: inlinehint nounwind uwtable
define internal ptr @DatumGetPointer(i64 noundef %0) #1 {
  %2 = alloca i64, align 8
  store i64 %0, ptr %2, align 8
  %3 = load i64, ptr %2, align 8
  %4 = inttoptr i64 %3 to ptr
  ret ptr %4
}

; Function Attrs: nounwind uwtable
define dso_local i64 @hashtext(ptr noundef %0) #0 {
  %2 = alloca ptr, align 8
  %3 = alloca ptr, align 8
  %4 = alloca i32, align 4
  %5 = alloca ptr, align 8
  %6 = alloca i64, align 8
  %7 = alloca i64, align 8
  %8 = alloca i64, align 8
  %9 = alloca ptr, align 8
  %10 = alloca ptr, align 8
  %11 = alloca i64, align 8
  store ptr %0, ptr %2, align 8
  call void @llvm.lifetime.start.p0(i64 8, ptr %3) #7
  %12 = load ptr, ptr %2, align 8
  %13 = getelementptr inbounds nuw %struct.FunctionCallInfoBaseData, ptr %12, i32 0, i32 6
  %14 = getelementptr inbounds [0 x %struct.NullableDatum], ptr %13, i64 0, i64 0
  %15 = getelementptr inbounds nuw %struct.NullableDatum, ptr %14, i32 0, i32 0
  %16 = load i64, ptr %15, align 8
  %17 = call ptr @DatumGetPointer(i64 noundef %16)
  %18 = call ptr @pg_detoast_datum_packed(ptr noundef %17)
  store ptr %18, ptr %3, align 8
  call void @llvm.lifetime.start.p0(i64 4, ptr %4) #7
  %19 = load ptr, ptr %2, align 8
  %20 = getelementptr inbounds nuw %struct.FunctionCallInfoBaseData, ptr %19, i32 0, i32 3
  %21 = load i32, ptr %20, align 8
  store i32 %21, ptr %4, align 4
  call void @llvm.lifetime.start.p0(i64 8, ptr %5) #7
  call void @llvm.lifetime.start.p0(i64 8, ptr %6) #7
  %22 = load i32, ptr %4, align 4
  %23 = icmp ne i32 %22, 0
  br i1 %23, label %37, label %24

24:                                               ; preds = %1
  br label %25

25:                                               ; preds = %24
  br i1 true, label %26, label %28

26:                                               ; preds = %25
  %27 = call zeroext i1 @errstart_cold(i32 noundef 21, ptr noundef null) #9
  br i1 %27, label %30, label %34

28:                                               ; preds = %25
  %29 = call zeroext i1 @errstart(i32 noundef 21, ptr noundef null)
  br i1 %29, label %30, label %34

30:                                               ; preds = %28, %26
  %31 = call i32 @errcode(i32 noundef 34209924)
  %32 = call i32 (ptr, ...) @errmsg(ptr noundef @.str)
  %33 = call i32 (ptr, ...) @errhint(ptr noundef @.str.1)
  call void @errfinish(ptr noundef @.str.2, i32 noundef 278, ptr noundef @__func__.hashtext)
  br label %34

34:                                               ; preds = %30, %28, %26
  unreachable

35:                                               ; No predecessors!
  br label %36

36:                                               ; preds = %35
  br label %37

37:                                               ; preds = %36, %1
  %38 = load i32, ptr %4, align 4
  %39 = call ptr @pg_newlocale_from_collation(i32 noundef %38)
  store ptr %39, ptr %5, align 8
  %40 = load ptr, ptr %5, align 8
  %41 = getelementptr inbounds nuw %struct.pg_locale_struct, ptr %40, i32 0, i32 1
  %42 = load i8, ptr %41, align 1, !range !4, !noundef !5
  %43 = trunc i8 %42 to i1
  br i1 %43, label %44, label %124

44:                                               ; preds = %37
  %45 = load ptr, ptr %3, align 8
  %46 = getelementptr inbounds nuw %struct.varattrib_1b, ptr %45, i32 0, i32 0
  %47 = load i8, ptr %46, align 1
  %48 = zext i8 %47 to i32
  %49 = and i32 %48, 1
  %50 = icmp eq i32 %49, 1
  br i1 %50, label %51, label %55

51:                                               ; preds = %44
  %52 = load ptr, ptr %3, align 8
  %53 = getelementptr inbounds nuw %struct.varattrib_1b, ptr %52, i32 0, i32 1
  %54 = getelementptr inbounds [0 x i8], ptr %53, i64 0, i64 0
  br label %59

55:                                               ; preds = %44
  %56 = load ptr, ptr %3, align 8
  %57 = getelementptr inbounds nuw %struct.anon.1, ptr %56, i32 0, i32 1
  %58 = getelementptr inbounds [0 x i8], ptr %57, i64 0, i64 0
  br label %59

59:                                               ; preds = %55, %51
  %60 = phi ptr [ %54, %51 ], [ %58, %55 ]
  %61 = load ptr, ptr %3, align 8
  %62 = getelementptr inbounds nuw %struct.varattrib_1b, ptr %61, i32 0, i32 0
  %63 = load i8, ptr %62, align 1
  %64 = zext i8 %63 to i32
  %65 = icmp eq i32 %64, 1
  br i1 %65, label %66, label %94

66:                                               ; preds = %59
  %67 = load ptr, ptr %3, align 8
  %68 = getelementptr inbounds nuw %struct.varattrib_1b_e, ptr %67, i32 0, i32 1
  %69 = load i8, ptr %68, align 1
  %70 = zext i8 %69 to i32
  %71 = icmp eq i32 %70, 1
  br i1 %71, label %72, label %73

72:                                               ; preds = %66
  br label %90

73:                                               ; preds = %66
  %74 = load ptr, ptr %3, align 8
  %75 = getelementptr inbounds nuw %struct.varattrib_1b_e, ptr %74, i32 0, i32 1
  %76 = load i8, ptr %75, align 1
  %77 = zext i8 %76 to i32
  %78 = and i32 %77, -2
  %79 = icmp eq i32 %78, 2
  br i1 %79, label %80, label %81

80:                                               ; preds = %73
  br label %88

81:                                               ; preds = %73
  %82 = load ptr, ptr %3, align 8
  %83 = getelementptr inbounds nuw %struct.varattrib_1b_e, ptr %82, i32 0, i32 1
  %84 = load i8, ptr %83, align 1
  %85 = zext i8 %84 to i32
  %86 = icmp eq i32 %85, 18
  %87 = select i1 %86, i64 16, i64 0
  br label %88

88:                                               ; preds = %81, %80
  %89 = phi i64 [ 8, %80 ], [ %87, %81 ]
  br label %90

90:                                               ; preds = %88, %72
  %91 = phi i64 [ 8, %72 ], [ %89, %88 ]
  %92 = add i64 2, %91
  %93 = sub i64 %92, 2
  br label %120

94:                                               ; preds = %59
  %95 = load ptr, ptr %3, align 8
  %96 = getelementptr inbounds nuw %struct.varattrib_1b, ptr %95, i32 0, i32 0
  %97 = load i8, ptr %96, align 1
  %98 = zext i8 %97 to i32
  %99 = and i32 %98, 1
  %100 = icmp eq i32 %99, 1
  br i1 %100, label %101, label %110

101:                                              ; preds = %94
  %102 = load ptr, ptr %3, align 8
  %103 = getelementptr inbounds nuw %struct.varattrib_1b, ptr %102, i32 0, i32 0
  %104 = load i8, ptr %103, align 1
  %105 = zext i8 %104 to i32
  %106 = ashr i32 %105, 1
  %107 = and i32 %106, 127
  %108 = sext i32 %107 to i64
  %109 = sub i64 %108, 1
  br label %118

110:                                              ; preds = %94
  %111 = load ptr, ptr %3, align 8
  %112 = getelementptr inbounds nuw %struct.anon.1, ptr %111, i32 0, i32 0
  %113 = load i32, ptr %112, align 4
  %114 = lshr i32 %113, 2
  %115 = and i32 %114, 1073741823
  %116 = sub i32 %115, 4
  %117 = zext i32 %116 to i64
  br label %118

118:                                              ; preds = %110, %101
  %119 = phi i64 [ %109, %101 ], [ %117, %110 ]
  br label %120

120:                                              ; preds = %118, %90
  %121 = phi i64 [ %93, %90 ], [ %119, %118 ]
  %122 = trunc i64 %121 to i32
  %123 = call i64 @hash_any(ptr noundef %60, i32 noundef %122)
  store i64 %123, ptr %6, align 8
  br label %237

124:                                              ; preds = %37
  call void @llvm.lifetime.start.p0(i64 8, ptr %7) #7
  call void @llvm.lifetime.start.p0(i64 8, ptr %8) #7
  call void @llvm.lifetime.start.p0(i64 8, ptr %9) #7
  call void @llvm.lifetime.start.p0(i64 8, ptr %10) #7
  %125 = load ptr, ptr %3, align 8
  %126 = getelementptr inbounds nuw %struct.varattrib_1b, ptr %125, i32 0, i32 0
  %127 = load i8, ptr %126, align 1
  %128 = zext i8 %127 to i32
  %129 = and i32 %128, 1
  %130 = icmp eq i32 %129, 1
  br i1 %130, label %131, label %135

131:                                              ; preds = %124
  %132 = load ptr, ptr %3, align 8
  %133 = getelementptr inbounds nuw %struct.varattrib_1b, ptr %132, i32 0, i32 1
  %134 = getelementptr inbounds [0 x i8], ptr %133, i64 0, i64 0
  br label %139

135:                                              ; preds = %124
  %136 = load ptr, ptr %3, align 8
  %137 = getelementptr inbounds nuw %struct.anon.1, ptr %136, i32 0, i32 1
  %138 = getelementptr inbounds [0 x i8], ptr %137, i64 0, i64 0
  br label %139

139:                                              ; preds = %135, %131
  %140 = phi ptr [ %134, %131 ], [ %138, %135 ]
  store ptr %140, ptr %10, align 8
  call void @llvm.lifetime.start.p0(i64 8, ptr %11) #7
  %141 = load ptr, ptr %3, align 8
  %142 = getelementptr inbounds nuw %struct.varattrib_1b, ptr %141, i32 0, i32 0
  %143 = load i8, ptr %142, align 1
  %144 = zext i8 %143 to i32
  %145 = icmp eq i32 %144, 1
  br i1 %145, label %146, label %174

146:                                              ; preds = %139
  %147 = load ptr, ptr %3, align 8
  %148 = getelementptr inbounds nuw %struct.varattrib_1b_e, ptr %147, i32 0, i32 1
  %149 = load i8, ptr %148, align 1
  %150 = zext i8 %149 to i32
  %151 = icmp eq i32 %150, 1
  br i1 %151, label %152, label %153

152:                                              ; preds = %146
  br label %170

153:                                              ; preds = %146
  %154 = load ptr, ptr %3, align 8
  %155 = getelementptr inbounds nuw %struct.varattrib_1b_e, ptr %154, i32 0, i32 1
  %156 = load i8, ptr %155, align 1
  %157 = zext i8 %156 to i32
  %158 = and i32 %157, -2
  %159 = icmp eq i32 %158, 2
  br i1 %159, label %160, label %161

160:                                              ; preds = %153
  br label %168

161:                                              ; preds = %153
  %162 = load ptr, ptr %3, align 8
  %163 = getelementptr inbounds nuw %struct.varattrib_1b_e, ptr %162, i32 0, i32 1
  %164 = load i8, ptr %163, align 1
  %165 = zext i8 %164 to i32
  %166 = icmp eq i32 %165, 18
  %167 = select i1 %166, i64 16, i64 0
  br label %168

168:                                              ; preds = %161, %160
  %169 = phi i64 [ 8, %160 ], [ %167, %161 ]
  br label %170

170:                                              ; preds = %168, %152
  %171 = phi i64 [ 8, %152 ], [ %169, %168 ]
  %172 = add i64 2, %171
  %173 = sub i64 %172, 2
  br label %200

174:                                              ; preds = %139
  %175 = load ptr, ptr %3, align 8
  %176 = getelementptr inbounds nuw %struct.varattrib_1b, ptr %175, i32 0, i32 0
  %177 = load i8, ptr %176, align 1
  %178 = zext i8 %177 to i32
  %179 = and i32 %178, 1
  %180 = icmp eq i32 %179, 1
  br i1 %180, label %181, label %190

181:                                              ; preds = %174
  %182 = load ptr, ptr %3, align 8
  %183 = getelementptr inbounds nuw %struct.varattrib_1b, ptr %182, i32 0, i32 0
  %184 = load i8, ptr %183, align 1
  %185 = zext i8 %184 to i32
  %186 = ashr i32 %185, 1
  %187 = and i32 %186, 127
  %188 = sext i32 %187 to i64
  %189 = sub i64 %188, 1
  br label %198

190:                                              ; preds = %174
  %191 = load ptr, ptr %3, align 8
  %192 = getelementptr inbounds nuw %struct.anon.1, ptr %191, i32 0, i32 0
  %193 = load i32, ptr %192, align 4
  %194 = lshr i32 %193, 2
  %195 = and i32 %194, 1073741823
  %196 = sub i32 %195, 4
  %197 = zext i32 %196 to i64
  br label %198

198:                                              ; preds = %190, %181
  %199 = phi i64 [ %189, %181 ], [ %197, %190 ]
  br label %200

200:                                              ; preds = %198, %170
  %201 = phi i64 [ %173, %170 ], [ %199, %198 ]
  store i64 %201, ptr %11, align 8
  %202 = load ptr, ptr %10, align 8
  %203 = load i64, ptr %11, align 8
  %204 = load ptr, ptr %5, align 8
  %205 = call i64 @pg_strnxfrm(ptr noundef null, i64 noundef 0, ptr noundef %202, i64 noundef %203, ptr noundef %204)
  store i64 %205, ptr %7, align 8
  %206 = load i64, ptr %7, align 8
  %207 = add i64 %206, 1
  %208 = call ptr @palloc(i64 noundef %207)
  store ptr %208, ptr %9, align 8
  %209 = load ptr, ptr %9, align 8
  %210 = load i64, ptr %7, align 8
  %211 = add i64 %210, 1
  %212 = load ptr, ptr %10, align 8
  %213 = load i64, ptr %11, align 8
  %214 = load ptr, ptr %5, align 8
  %215 = call i64 @pg_strnxfrm(ptr noundef %209, i64 noundef %211, ptr noundef %212, i64 noundef %213, ptr noundef %214)
  store i64 %215, ptr %8, align 8
  %216 = load i64, ptr %8, align 8
  %217 = load i64, ptr %7, align 8
  %218 = icmp ugt i64 %216, %217
  br i1 %218, label %219, label %230

219:                                              ; preds = %200
  br label %220

220:                                              ; preds = %219
  br i1 true, label %221, label %223

221:                                              ; preds = %220
  %222 = call zeroext i1 @errstart_cold(i32 noundef 21, ptr noundef null) #9
  br i1 %222, label %225, label %227

223:                                              ; preds = %220
  %224 = call zeroext i1 @errstart(i32 noundef 21, ptr noundef null)
  br i1 %224, label %225, label %227

225:                                              ; preds = %223, %221
  %226 = call i32 (ptr, ...) @errmsg_internal(ptr noundef @.str.3)
  call void @errfinish(ptr noundef @.str.2, i32 noundef 303, ptr noundef @__func__.hashtext)
  br label %227

227:                                              ; preds = %225, %223, %221
  unreachable

228:                                              ; No predecessors!
  br label %229

229:                                              ; preds = %228
  br label %230

230:                                              ; preds = %229, %200
  %231 = load ptr, ptr %9, align 8
  %232 = load i64, ptr %7, align 8
  %233 = add i64 %232, 1
  %234 = trunc i64 %233 to i32
  %235 = call i64 @hash_any(ptr noundef %231, i32 noundef %234)
  store i64 %235, ptr %6, align 8
  %236 = load ptr, ptr %9, align 8
  call void @pfree(ptr noundef %236)
  call void @llvm.lifetime.end.p0(i64 8, ptr %11) #7
  call void @llvm.lifetime.end.p0(i64 8, ptr %10) #7
  call void @llvm.lifetime.end.p0(i64 8, ptr %9) #7
  call void @llvm.lifetime.end.p0(i64 8, ptr %8) #7
  call void @llvm.lifetime.end.p0(i64 8, ptr %7) #7
  br label %237

237:                                              ; preds = %230, %120
  br label %238

238:                                              ; preds = %237
  %239 = load ptr, ptr %3, align 8
  %240 = load ptr, ptr %2, align 8
  %241 = getelementptr inbounds nuw %struct.FunctionCallInfoBaseData, ptr %240, i32 0, i32 6
  %242 = getelementptr inbounds [0 x %struct.NullableDatum], ptr %241, i64 0, i64 0
  %243 = getelementptr inbounds nuw %struct.NullableDatum, ptr %242, i32 0, i32 0
  %244 = load i64, ptr %243, align 8
  %245 = call ptr @DatumGetPointer(i64 noundef %244)
  %246 = icmp ne ptr %239, %245
  br i1 %246, label %247, label %249

247:                                              ; preds = %238
  %248 = load ptr, ptr %3, align 8
  call void @pfree(ptr noundef %248)
  br label %249

249:                                              ; preds = %247, %238
  br label %250

250:                                              ; preds = %249
  br label %251

251:                                              ; preds = %250
  %252 = load i64, ptr %6, align 8
  call void @llvm.lifetime.end.p0(i64 8, ptr %6) #7
  call void @llvm.lifetime.end.p0(i64 8, ptr %5) #7
  call void @llvm.lifetime.end.p0(i64 4, ptr %4) #7
  call void @llvm.lifetime.end.p0(i64 8, ptr %3) #7
  ret i64 %252
}