; Function Attrs: nounwind uwtable
define dso_local range(i64 0, 4294967296) i64 @hashtext(ptr noundef readonly captures(none) %0) local_unnamed_addr #0 {
  %2 = getelementptr inbounds nuw i8, ptr %0, i64 32
  %3 = load i64, ptr %2, align 8
  %4 = inttoptr i64 %3 to ptr
  %5 = tail call ptr @pg_detoast_datum_packed(ptr noundef %4) #6
  %6 = getelementptr inbounds nuw i8, ptr %0, i64 24
  %7 = load i32, ptr %6, align 8
  %.not = icmp eq i32 %7, 0
  br i1 %.not, label %8, label %13

8:                                                ; preds = %1
  %9 = tail call zeroext i1 @errstart_cold(i32 noundef 21, ptr noundef null) #8
  tail call void @llvm.assume(i1 %9)
  %10 = tail call i32 @errcode(i32 noundef 34209924) #6
  %11 = tail call i32 (ptr, ...) @errmsg(ptr noundef nonnull @.str) #6
  %12 = tail call i32 (ptr, ...) @errhint(ptr noundef nonnull @.str.1) #6
  tail call void @errfinish(ptr noundef nonnull @.str.2, i32 noundef 278, ptr noundef nonnull @__func__.hashtext) #6
  unreachable

13:                                               ; preds = %1
  %14 = tail call ptr @pg_newlocale_from_collation(i32 noundef %7) #6
  %15 = getelementptr inbounds nuw i8, ptr %14, i64 1
  %16 = load i8, ptr %15, align 1, !range !4, !noundef !5
  %17 = trunc nuw i8 %16 to i1
  %18 = load i8, ptr %5, align 1
  %19 = zext i8 %18 to i32
  %20 = and i32 %19, 1
  %.not49 = icmp eq i32 %20, 0
  %21 = getelementptr inbounds nuw i8, ptr %5, i64 1
  %22 = getelementptr inbounds nuw i8, ptr %5, i64 4
  %23 = select i1 %.not49, ptr %22, ptr %21
  %24 = icmp eq i8 %18, 1
  br i1 %17, label %25, label %45

25:                                               ; preds = %13
  br i1 %24, label %26, label %34

26:                                               ; preds = %25
  %27 = load i8, ptr %21, align 1
  %28 = icmp eq i8 %27, 1
  %29 = and i8 %27, -2
  %30 = icmp eq i8 %29, 2
  %or.cond = or i1 %28, %30
  %31 = icmp eq i8 %27, 18
  %32 = select i1 %31, i32 16, i32 0
  %33 = select i1 %or.cond, i32 8, i32 %32
  br label %42

34:                                               ; preds = %25
  br i1 %.not49, label %38, label %35

35:                                               ; preds = %34
  %36 = lshr i32 %19, 1
  %37 = add nsw i32 %36, -1
  br label %42

38:                                               ; preds = %34
  %39 = load i32, ptr %5, align 4
  %40 = lshr i32 %39, 2
  %41 = add nsw i32 %40, -4
  br label %42

42:                                               ; preds = %35, %38, %26
  %43 = phi i32 [ %33, %26 ], [ %37, %35 ], [ %41, %38 ]
  %44 = tail call i32 @hash_bytes(ptr noundef nonnull %23, i32 noundef %43) #6
  br label %77

45:                                               ; preds = %13
  br i1 %24, label %46, label %54

46:                                               ; preds = %45
  %47 = load i8, ptr %21, align 1
  %48 = icmp eq i8 %47, 1
  %49 = and i8 %47, -2
  %50 = icmp eq i8 %49, 2
  %or.cond53 = or i1 %48, %50
  %51 = icmp eq i8 %47, 18
  %52 = select i1 %51, i64 16, i64 0
  %53 = select i1 %or.cond53, i64 8, i64 %52
  br label %64

54:                                               ; preds = %45
  br i1 %.not49, label %59, label %55

55:                                               ; preds = %54
  %56 = lshr i32 %19, 1
  %57 = zext nneg i32 %56 to i64
  %58 = add nsw i64 %57, -1
  br label %64

59:                                               ; preds = %54
  %60 = load i32, ptr %5, align 4
  %61 = lshr i32 %60, 2
  %62 = add nsw i32 %61, -4
  %63 = zext i32 %62 to i64
  br label %64

64:                                               ; preds = %55, %59, %46
  %65 = phi i64 [ %53, %46 ], [ %58, %55 ], [ %63, %59 ]
  %66 = tail call i64 @pg_strnxfrm(ptr noundef null, i64 noundef 0, ptr noundef nonnull %23, i64 noundef %65, ptr noundef nonnull %14) #6
  %67 = add i64 %66, 1
  %68 = tail call ptr @palloc(i64 noundef %67) #6
  %69 = tail call i64 @pg_strnxfrm(ptr noundef %68, i64 noundef %67, ptr noundef nonnull %23, i64 noundef %65, ptr noundef nonnull %14) #6
  %70 = icmp ugt i64 %69, %66
  br i1 %70, label %71, label %74

71:                                               ; preds = %64
  %72 = tail call zeroext i1 @errstart_cold(i32 noundef 21, ptr noundef null) #8
  tail call void @llvm.assume(i1 %72)
  %73 = tail call i32 (ptr, ...) @errmsg_internal(ptr noundef nonnull @.str.3) #6
  tail call void @errfinish(ptr noundef nonnull @.str.2, i32 noundef 303, ptr noundef nonnull @__func__.hashtext) #6
  unreachable

74:                                               ; preds = %64
  %75 = trunc i64 %67 to i32
  %76 = tail call i32 @hash_bytes(ptr noundef %68, i32 noundef %75) #6
  tail call void @pfree(ptr noundef %68) #6
  br label %77

77:                                               ; preds = %42, %74
  %.0.in = phi i32 [ %44, %42 ], [ %76, %74 ]
  %78 = load i64, ptr %2, align 8
  %79 = inttoptr i64 %78 to ptr
  %.not50 = icmp eq ptr %5, %79
  br i1 %.not50, label %81, label %80

80:                                               ; preds = %77
  tail call void @pfree(ptr noundef nonnull %5) #6
  br label %81

81:                                               ; preds = %80, %77
  %.0 = zext i32 %.0.in to i64
  ret i64 %.0
}